target datalayout = "e-m:e-p270:32:32-p271:32:32-p272:64:64-i64:64-i128:128-f80:128-n8:16:32:64-S128"
target triple = "x86_64-unknown-linux-gnu"

%"class.OpenColorIO_v2_4dev::DynamicProperty" = type { ptr }
%"class.OpenColorIO_v2_4dev::DynamicPropertyImpl.base" = type <{ %"class.OpenColorIO_v2_4dev::DynamicProperty", i32, i8 }>
%"class.OpenColorIO_v2_4dev::DynamicPropertyGradingToneImpl" = type { %"class.OpenColorIO_v2_4dev::DynamicPropertyImpl.base", %"class.OpenColorIO_v2_4dev::DynamicPropertyGradingTone", %"struct.OpenColorIO_v2_4dev::GradingTone", %"struct.OpenColorIO_v2_4dev::GradingTonePreRender" }
%"class.OpenColorIO_v2_4dev::DynamicPropertyGradingTone" = type { ptr }
%"struct.OpenColorIO_v2_4dev::GradingTone" = type { %"struct.OpenColorIO_v2_4dev::GradingRGBMSW", %"struct.OpenColorIO_v2_4dev::GradingRGBMSW", %"struct.OpenColorIO_v2_4dev::GradingRGBMSW", %"struct.OpenColorIO_v2_4dev::GradingRGBMSW", %"struct.OpenColorIO_v2_4dev::GradingRGBMSW", double }
%"struct.OpenColorIO_v2_4dev::GradingRGBMSW" = type { double, double, double, double, double, double }
%"struct.OpenColorIO_v2_4dev::GradingTonePreRender" = type { double, double, double, double, double, double, double, double, [4 x [6 x float]], [4 x [6 x float]], [4 x [6 x float]], [2 x [4 x [3 x float]]], [2 x [4 x [3 x float]]], [2 x [4 x [2 x float]]], [2 x [4 x [2 x float]]], [2 x [4 x [2 x float]]], [2 x [4 x [2 x float]]], [2 x [4 x float]], [2 x [4 x float]], [2 x [4 x float]], [2 x [2 x float]], float, float, float, float, i8, i32 }

; Function Attrs: mustprogress uwtable
define hidden void @_ZN19OpenColorIO_v2_4dev30DynamicPropertyGradingToneImpl8setValueERKNS_11GradingToneE(ptr noundef nonnull align 8 dereferenceable(1208) %this, ptr noundef nonnull align 8 dereferenceable(248) %value) unnamed_addr #0 align 2 {
entry:
  %this.addr = alloca ptr, align 8
  %value.addr = alloca ptr, align 8
  store ptr %this, ptr %this.addr, align 8
  store ptr %value, ptr %value.addr, align 8
  %this1 = load ptr, ptr %this.addr, align 8
  %0 = load ptr, ptr %value.addr, align 8
  call void @_ZNK19OpenColorIO_v2_4dev11GradingTone8validateEv(ptr noundef nonnull align 8 dereferenceable(248) %0)
  %1 = load ptr, ptr %value.addr, align 8
  %m_value = getelementptr inbounds %"class.OpenColorIO_v2_4dev::DynamicPropertyGradingToneImpl", ptr %this1, i32 0, i32 2
  call void @llvm.memcpy.p0.p0.i64(ptr align 8 %m_value, ptr align 8 %1, i64 248, i1 false)
  %m_preRenderValues = getelementptr inbounds %"class.OpenColorIO_v2_4dev::DynamicPropertyGradingToneImpl", ptr %this1, i32 0, i32 3
  %m_value2 = getelementptr inbounds %"class.OpenColorIO_v2_4dev::DynamicPropertyGradingToneImpl", ptr %this1, i32 0, i32 2
  call void @_ZN19OpenColorIO_v2_4dev20GradingTonePreRender6updateERKNS_11GradingToneE(ptr noundef nonnull align 8 dereferenceable(936) %m_preRenderValues, ptr noundef nonnull align 8 dereferenceable(248) %m_value2)
  ret void
}

; Function Attrs: uwtable
define hidden void @_ZThn16_N19OpenColorIO_v2_4dev30DynamicPropertyGradingToneImpl8setValueERKNS_11GradingToneE(ptr noundef %this, ptr noundef nonnull align 8 dereferenceable(248) %value) unnamed_addr #6 align 2 {
entry:
  %this.addr = alloca ptr, align 8
  %value.addr = alloca ptr, align 8
  store ptr %this, ptr %this.addr, align 8
  store ptr %value, ptr %value.addr, align 8
  %this1 = load ptr, ptr %this.addr, align 8
  %0 = getelementptr inbounds i8, ptr %this1, i64 -16
  %1 = load ptr, ptr %value.addr, align 8
  tail call void @_ZN19OpenColorIO_v2_4dev30DynamicPropertyGradingToneImpl8setValueERKNS_11GradingToneE(ptr noundef nonnull align 8 dereferenceable(1208) %0, ptr noundef nonnull align 8 dereferenceable(248) %1)
  ret void
}