; Function Attrs: uwtable
define hidden void @_ZThn16_N19OpenColorIO_v2_4dev30DynamicPropertyGradingToneImpl8setValueERKNS_11GradingToneE(ptr noundef %this, ptr noundef nonnull align 8 dereferenceable(248) %value) unnamed_addr #8 align 2 {
entry:
  tail call void @_ZNK19OpenColorIO_v2_4dev11GradingTone8validateEv(ptr noundef nonnull align 8 dereferenceable(248) %value)
  %m_value.i = getelementptr inbounds i8, ptr %this, i64 8
  tail call void @llvm.memcpy.p0.p0.i64(ptr noundef nonnull align 8 dereferenceable(248) %m_value.i, ptr noundef nonnull align 8 dereferenceable(248) %value, i64 248, i1 false)
  %m_preRenderValues.i = getelementptr inbounds i8, ptr %this, i64 256
  tail call void @_ZN19OpenColorIO_v2_4dev20GradingTonePreRender6updateERKNS_11GradingToneE(ptr noundef nonnull align 8 dereferenceable(936) %m_preRenderValues.i, ptr noundef nonnull align 8 dereferenceable(248) %m_value.i)
  ret void
}